target datalayout = "e-m:e-p270:32:32-p271:32:32-p272:64:64-i64:64-i128:128-f80:128-n8:16:32:64-S128"
target triple = "x86_64-pc-linux-gnu"

%struct.lv_color_t = type { i8, i8, i8 }
%struct.lv_draw_dsc_base_t = type { ptr, i32, i32, i32, ptr, i64, ptr }
%struct.lv_draw_border_dsc_t = type { %struct.lv_draw_dsc_base_t, i32, %struct.lv_color_t, i32, i8, i8 }

; Function Attrs: inlinehint nounwind uwtable
define internal void @lv_memzero(ptr noundef %0, i64 noundef %1) #1 {
  %3 = alloca ptr, align 8
  %4 = alloca i64, align 8
  store ptr %0, ptr %3, align 8, !tbaa !3
  store i64 %1, ptr %4, align 8, !tbaa !26
  %5 = load ptr, ptr %3, align 8, !tbaa !3
  %6 = load i64, ptr %4, align 8, !tbaa !26
  call void @lv_memset(ptr noundef %5, i8 noundef zeroext 0, i64 noundef %6)
  ret void
}

; Function Attrs: nounwind uwtable
define void @lv_draw_border_dsc_init(ptr noundef %0) #0 {
  %2 = alloca ptr, align 8
  store ptr %0, ptr %2, align 8, !tbaa !3
  %3 = load ptr, ptr %2, align 8, !tbaa !3
  call void @lv_memzero(ptr noundef %3, i64 noundef 64)
  %4 = load ptr, ptr %2, align 8, !tbaa !3
  %5 = getelementptr inbounds nuw %struct.lv_draw_border_dsc_t, ptr %4, i32 0, i32 4
  store i8 -1, ptr %5, align 4, !tbaa !37
  %6 = load ptr, ptr %2, align 8, !tbaa !3
  %7 = getelementptr inbounds nuw %struct.lv_draw_border_dsc_t, ptr %6, i32 0, i32 5
  %8 = load i8, ptr %7, align 1
  %9 = and i8 %8, -32
  %10 = or i8 %9, 15
  store i8 %10, ptr %7, align 1
  %11 = load ptr, ptr %2, align 8, !tbaa !3
  %12 = getelementptr inbounds nuw %struct.lv_draw_border_dsc_t, ptr %11, i32 0, i32 0
  %13 = getelementptr inbounds nuw %struct.lv_draw_dsc_base_t, ptr %12, i32 0, i32 5
  store i64 64, ptr %13, align 8, !tbaa !39
  ret void
}