; Function Attrs: nounwind uwtable
define void @lv_draw_border_dsc_init(ptr noundef %0) local_unnamed_addr #0 {
  tail call void @lv_memset(ptr noundef %0, i8 noundef zeroext 0, i64 noundef 64) #5
  %2 = getelementptr inbounds nuw i8, ptr %0, i64 60
  store i8 -1, ptr %2, align 4, !tbaa !32
  %3 = getelementptr inbounds nuw i8, ptr %0, i64 61
  %4 = load i8, ptr %3, align 1
  %5 = and i8 %4, -32
  %6 = or disjoint i8 %5, 15
  store i8 %6, ptr %3, align 1
  %7 = getelementptr inbounds nuw i8, ptr %0, i64 32
  store i64 64, ptr %7, align 8, !tbaa !34
  ret void
}